target datalayout = "e-m:e-p270:32:32-p271:32:32-p272:64:64-i64:64-i128:128-f80:128-n8:16:32:64-S128"
target triple = "x86_64-pc-linux-gnu"

; Function Attrs: alwaysinline nounwind willreturn memory(none) uwtable
define internal i32 @av_clip_uintp2_c(i32 noundef %0, i32 noundef %1) #3 {
  %3 = alloca i32, align 4
  %4 = alloca i32, align 4
  %5 = alloca i32, align 4
  store i32 %0, ptr %4, align 4, !tbaa !9
  store i32 %1, ptr %5, align 4, !tbaa !9
  %6 = load i32, ptr %4, align 4, !tbaa !9
  %7 = load i32, ptr %5, align 4, !tbaa !9
  %8 = shl i32 1, %7
  %9 = sub i32 %8, 1
  %10 = xor i32 %9, -1
  %11 = and i32 %6, %10
  %12 = icmp ne i32 %11, 0
  br i1 %12, label %13, label %21

13:                                               ; preds = %2
  %14 = load i32, ptr %4, align 4, !tbaa !9
  %15 = xor i32 %14, -1
  %16 = ashr i32 %15, 31
  %17 = load i32, ptr %5, align 4, !tbaa !9
  %18 = shl i32 1, %17
  %19 = sub i32 %18, 1
  %20 = and i32 %16, %19
  store i32 %20, ptr %3, align 4
  br label %23

21:                                               ; preds = %2
  %22 = load i32, ptr %4, align 4, !tbaa !9
  store i32 %22, ptr %3, align 4
  br label %23

23:                                               ; preds = %21, %13
  %24 = load i32, ptr %3, align 4
  ret i32 %24
}

; Function Attrs: nounwind uwtable
define internal void @put_uni_w_pixels_10(ptr noundef %0, i64 noundef %1, ptr noundef %2, i64 noundef %3, i32 noundef %4, i32 noundef %5, i32 noundef %6, i32 noundef %7, ptr noundef %8, ptr noundef %9, i32 noundef %10) #0 {
  %12 = alloca ptr, align 8
  %13 = alloca i64, align 8
  %14 = alloca ptr, align 8
  %15 = alloca i64, align 8
  %16 = alloca i32, align 4
  %17 = alloca i32, align 4
  %18 = alloca i32, align 4
  %19 = alloca i32, align 4
  %20 = alloca ptr, align 8
  %21 = alloca ptr, align 8
  %22 = alloca i32, align 4
  %23 = alloca ptr, align 8
  %24 = alloca ptr, align 8
  %25 = alloca i64, align 8
  %26 = alloca i64, align 8
  %27 = alloca i32, align 4
  %28 = alloca i32, align 4
  %29 = alloca i32, align 4
  %30 = alloca i32, align 4
  %31 = alloca i32, align 4
  %32 = alloca i32, align 4
  %33 = alloca i32, align 4
  store ptr %0, ptr %12, align 8, !tbaa !144
  store i64 %1, ptr %13, align 8, !tbaa !146
  store ptr %2, ptr %14, align 8, !tbaa !144
  store i64 %3, ptr %15, align 8, !tbaa !146
  store i32 %4, ptr %16, align 4, !tbaa !9
  store i32 %5, ptr %17, align 4, !tbaa !9
  store i32 %6, ptr %18, align 4, !tbaa !9
  store i32 %7, ptr %19, align 4, !tbaa !9
  store ptr %8, ptr %20, align 8, !tbaa !144
  store ptr %9, ptr %21, align 8, !tbaa !144
  store i32 %10, ptr %22, align 4, !tbaa !9
  call void @llvm.lifetime.start.p0(i64 8, ptr %23) #8
  %34 = load ptr, ptr %14, align 8, !tbaa !144
  store ptr %34, ptr %23, align 8, !tbaa !142
  call void @llvm.lifetime.start.p0(i64 8, ptr %24) #8
  %35 = load ptr, ptr %12, align 8, !tbaa !144
  store ptr %35, ptr %24, align 8, !tbaa !142
  call void @llvm.lifetime.start.p0(i64 8, ptr %25) #8
  %36 = load i64, ptr %15, align 8, !tbaa !146
  %37 = udiv i64 %36, 2
  store i64 %37, ptr %25, align 8, !tbaa !146
  call void @llvm.lifetime.start.p0(i64 8, ptr %26) #8
  %38 = load i64, ptr %13, align 8, !tbaa !146
  %39 = udiv i64 %38, 2
  store i64 %39, ptr %26, align 8, !tbaa !146
  call void @llvm.lifetime.start.p0(i64 4, ptr %27) #8
  %40 = load i32, ptr %17, align 4, !tbaa !9
  %41 = add nsw i32 %40, 14
  %42 = sub nsw i32 %41, 10
  store i32 %42, ptr %27, align 4, !tbaa !9
  call void @llvm.lifetime.start.p0(i64 4, ptr %28) #8
  %43 = load i32, ptr %27, align 4, !tbaa !9
  %44 = sub nsw i32 %43, 1
  %45 = shl i32 1, %44
  store i32 %45, ptr %28, align 4, !tbaa !9
  call void @llvm.lifetime.start.p0(i64 4, ptr %29) #8
  %46 = load i32, ptr %19, align 4, !tbaa !9
  %47 = mul nsw i32 %46, 4
  store i32 %47, ptr %29, align 4, !tbaa !9
  call void @llvm.lifetime.start.p0(i64 4, ptr %30) #8
  store i32 0, ptr %30, align 4, !tbaa !9
  br label %48

48:                                               ; preds = %92, %11
  %49 = load i32, ptr %30, align 4, !tbaa !9
  %50 = load i32, ptr %16, align 4, !tbaa !9
  %51 = icmp slt i32 %49, %50
  br i1 %51, label %53, label %52

52:                                               ; preds = %48
  store i32 2, ptr %31, align 4
  call void @llvm.lifetime.end.p0(i64 4, ptr %30) #8
  br label %95

53:                                               ; preds = %48
  call void @llvm.lifetime.start.p0(i64 4, ptr %32) #8
  store i32 0, ptr %32, align 4, !tbaa !9
  br label %54

54:                                               ; preds = %82, %53
  %55 = load i32, ptr %32, align 4, !tbaa !9
  %56 = load i32, ptr %22, align 4, !tbaa !9
  %57 = icmp slt i32 %55, %56
  br i1 %57, label %59, label %58

58:                                               ; preds = %54
  store i32 5, ptr %31, align 4
  call void @llvm.lifetime.end.p0(i64 4, ptr %32) #8
  br label %85

59:                                               ; preds = %54
  call void @llvm.lifetime.start.p0(i64 4, ptr %33) #8
  %60 = load ptr, ptr %23, align 8, !tbaa !142
  %61 = load i32, ptr %32, align 4, !tbaa !9
  %62 = sext i32 %61 to i64
  %63 = getelementptr inbounds i16, ptr %60, i64 %62
  %64 = load i16, ptr %63, align 2, !tbaa !148
  %65 = zext i16 %64 to i32
  %66 = shl i32 %65, 4
  store i32 %66, ptr %33, align 4, !tbaa !9
  %67 = load i32, ptr %33, align 4, !tbaa !9
  %68 = load i32, ptr %18, align 4, !tbaa !9
  %69 = mul nsw i32 %67, %68
  %70 = load i32, ptr %28, align 4, !tbaa !9
  %71 = add nsw i32 %69, %70
  %72 = load i32, ptr %27, align 4, !tbaa !9
  %73 = ashr i32 %71, %72
  %74 = load i32, ptr %29, align 4, !tbaa !9
  %75 = add nsw i32 %73, %74
  %76 = call i32 @av_clip_uintp2_c(i32 noundef %75, i32 noundef 10) #9
  %77 = trunc i32 %76 to i16
  %78 = load ptr, ptr %24, align 8, !tbaa !142
  %79 = load i32, ptr %32, align 4, !tbaa !9
  %80 = sext i32 %79 to i64
  %81 = getelementptr inbounds i16, ptr %78, i64 %80
  store i16 %77, ptr %81, align 2, !tbaa !148
  call void @llvm.lifetime.end.p0(i64 4, ptr %33) #8
  br label %82

82:                                               ; preds = %59
  %83 = load i32, ptr %32, align 4, !tbaa !9
  %84 = add nsw i32 %83, 1
  store i32 %84, ptr %32, align 4, !tbaa !9
  br label %54, !llvm.loop !496

85:                                               ; preds = %58
  %86 = load i64, ptr %25, align 8, !tbaa !146
  %87 = load ptr, ptr %23, align 8, !tbaa !142
  %88 = getelementptr inbounds i16, ptr %87, i64 %86
  store ptr %88, ptr %23, align 8, !tbaa !142
  %89 = load i64, ptr %26, align 8, !tbaa !146
  %90 = load ptr, ptr %24, align 8, !tbaa !142
  %91 = getelementptr inbounds i16, ptr %90, i64 %89
  store ptr %91, ptr %24, align 8, !tbaa !142
  br label %92

92:                                               ; preds = %85
  %93 = load i32, ptr %30, align 4, !tbaa !9
  %94 = add nsw i32 %93, 1
  store i32 %94, ptr %30, align 4, !tbaa !9
  br label %48, !llvm.loop !497

95:                                               ; preds = %52
  call void @llvm.lifetime.end.p0(i64 4, ptr %29) #8
  call void @llvm.lifetime.end.p0(i64 4, ptr %28) #8
  call void @llvm.lifetime.end.p0(i64 4, ptr %27) #8
  call void @llvm.lifetime.end.p0(i64 8, ptr %26) #8
  call void @llvm.lifetime.end.p0(i64 8, ptr %25) #8
  call void @llvm.lifetime.end.p0(i64 8, ptr %24) #8
  call void @llvm.lifetime.end.p0(i64 8, ptr %23) #8
  ret void
}