; Function Attrs: nofree norecurse nosync nounwind memory(argmem: readwrite) uwtable
define internal void @put_uni_w_pixels_10(ptr noundef writeonly captures(none) %0, i64 noundef %1, ptr noundef readonly captures(none) %2, i64 noundef %3, i32 noundef %4, i32 noundef %5, i32 noundef %6, i32 noundef %7, ptr readnone captures(none) %8, ptr readnone captures(none) %9, i32 noundef %10) #2 {
  %12 = lshr i64 %3, 1
  %13 = lshr i64 %1, 1
  %14 = add nsw i32 %5, 4
  %15 = add nsw i32 %5, 3
  %16 = shl nuw i32 1, %15
  %17 = shl nsw i32 %7, 2
  %18 = icmp sgt i32 %4, 0
  br i1 %18, label %.preheader.lr.ph, label %._crit_edge32

.preheader.lr.ph:                                 ; preds = %11
  %19 = icmp sgt i32 %10, 0
  %20 = shl i32 %6, 4
  br i1 %19, label %.preheader.us.preheader, label %._crit_edge32

.preheader.us.preheader:                          ; preds = %.preheader.lr.ph
  %wide.trip.count = zext nneg i32 %10 to i64
  br label %.preheader.us

.preheader.us:                                    ; preds = %.preheader.us.preheader, %._crit_edge.us
  %.031.us = phi ptr [ %33, %._crit_edge.us ], [ %2, %.preheader.us.preheader ]
  %.02630.us = phi i32 [ %35, %._crit_edge.us ], [ 0, %.preheader.us.preheader ]
  %.02729.us = phi ptr [ %34, %._crit_edge.us ], [ %0, %.preheader.us.preheader ]
  br label %21

21:                                               ; preds = %.preheader.us, %21
  %indvars.iv = phi i64 [ 0, %.preheader.us ], [ %indvars.iv.next, %21 ]
  %22 = getelementptr inbounds nuw i16, ptr %.031.us, i64 %indvars.iv
  %23 = load i16, ptr %22, align 2, !tbaa !124
  %24 = zext i16 %23 to i32
  %25 = mul i32 %20, %24
  %26 = add nsw i32 %25, %16
  %27 = ashr i32 %26, %14
  %28 = add nsw i32 %27, %17
  %29 = tail call i32 @llvm.smax.i32(i32 %28, i32 0)
  %30 = tail call i32 @llvm.umin.i32(i32 %29, i32 1023)
  %31 = trunc nuw nsw i32 %30 to i16
  %32 = getelementptr inbounds nuw i16, ptr %.02729.us, i64 %indvars.iv
  store i16 %31, ptr %32, align 2, !tbaa !124
  %indvars.iv.next = add nuw nsw i64 %indvars.iv, 1
  %exitcond.not = icmp eq i64 %indvars.iv.next, %wide.trip.count
  br i1 %exitcond.not, label %._crit_edge.us, label %21, !llvm.loop !461

._crit_edge.us:                                   ; preds = %21
  %33 = getelementptr inbounds nuw i16, ptr %.031.us, i64 %12
  %34 = getelementptr inbounds nuw i16, ptr %.02729.us, i64 %13
  %35 = add nuw nsw i32 %.02630.us, 1
  %exitcond35.not = icmp eq i32 %35, %4
  br i1 %exitcond35.not, label %._crit_edge32, label %.preheader.us, !llvm.loop !462

._crit_edge32:                                    ; preds = %._crit_edge.us, %.preheader.lr.ph, %11
  ret void
}